target datalayout = "e-m:e-p270:32:32-p271:32:32-p272:64:64-i64:64-i128:128-f80:128-n8:16:32:64-S128"
target triple = "x86_64-pc-linux-gnu"

%struct.Vec_Str_t_ = type { i32, i32, ptr }
%struct.Vec_Wrd_t_ = type { i32, i32, ptr }

; Function Attrs: inlinehint nounwind uwtable
define internal i32 @Abc_Var2Lit(i32 noundef %0, i32 noundef %1) #4 {
  %3 = alloca i32, align 4
  %4 = alloca i32, align 4
  store i32 %0, ptr %3, align 4, !tbaa !10
  store i32 %1, ptr %4, align 4, !tbaa !10
  %5 = load i32, ptr %3, align 4, !tbaa !10
  %6 = load i32, ptr %3, align 4, !tbaa !10
  %7 = add nsw i32 %5, %6
  %8 = load i32, ptr %4, align 4, !tbaa !10
  %9 = add nsw i32 %7, %8
  ret i32 %9
}

; Function Attrs: inlinehint nounwind uwtable
define internal i32 @Abc_TtGetBit(ptr noundef %0, i32 noundef %1) #4 {
  %3 = alloca ptr, align 8
  %4 = alloca i32, align 4
  store ptr %0, ptr %3, align 8, !tbaa !16
  store i32 %1, ptr %4, align 4, !tbaa !10
  %5 = load ptr, ptr %3, align 8, !tbaa !16
  %6 = load i32, ptr %4, align 4, !tbaa !10
  %7 = ashr i32 %6, 6
  %8 = sext i32 %7 to i64
  %9 = getelementptr inbounds i64, ptr %5, i64 %8
  %10 = load i64, ptr %9, align 8, !tbaa !45
  %11 = load i32, ptr %4, align 4, !tbaa !10
  %12 = and i32 %11, 63
  %13 = zext i32 %12 to i64
  %14 = lshr i64 %10, %13
  %15 = trunc i64 %14 to i32
  %16 = and i32 %15, 1
  ret i32 %16
}

; Function Attrs: inlinehint nounwind uwtable
define internal ptr @Vec_WrdEntryP(ptr noundef %0, i32 noundef %1) #4 {
  %3 = alloca ptr, align 8
  %4 = alloca i32, align 4
  store ptr %0, ptr %3, align 8, !tbaa !3
  store i32 %1, ptr %4, align 4, !tbaa !10
  %5 = load ptr, ptr %3, align 8, !tbaa !3
  %6 = getelementptr inbounds nuw %struct.Vec_Wrd_t_, ptr %5, i32 0, i32 2
  %7 = load ptr, ptr %6, align 8, !tbaa !43
  %8 = load i32, ptr %4, align 4, !tbaa !10
  %9 = sext i32 %8 to i64
  %10 = getelementptr inbounds i64, ptr %7, i64 %9
  ret ptr %10
}

; Function Attrs: inlinehint nounwind uwtable
define internal signext i8 @Vec_StrEntry(ptr noundef %0, i32 noundef %1) #4 {
  %3 = alloca ptr, align 8
  %4 = alloca i32, align 4
  store ptr %0, ptr %3, align 8, !tbaa !8
  store i32 %1, ptr %4, align 4, !tbaa !10
  %5 = load ptr, ptr %3, align 8, !tbaa !8
  %6 = getelementptr inbounds nuw %struct.Vec_Str_t_, ptr %5, i32 0, i32 2
  %7 = load ptr, ptr %6, align 8, !tbaa !40
  %8 = load i32, ptr %4, align 4, !tbaa !10
  %9 = sext i32 %8 to i64
  %10 = getelementptr inbounds i8, ptr %7, i64 %9
  %11 = load i8, ptr %10, align 1, !tbaa !42
  ret i8 %11
}

; Function Attrs: nounwind uwtable
define ptr @Gia_DeriveAig(ptr noundef %0, ptr noundef %1) #0 {
  %3 = alloca ptr, align 8
  %4 = alloca ptr, align 8
  %5 = alloca i32, align 4
  %6 = alloca i32, align 4
  %7 = alloca i32, align 4
  %8 = alloca i32, align 4
  %9 = alloca i32, align 4
  %10 = alloca [10 x i32], align 16
  %11 = alloca ptr, align 8
  %12 = alloca i32, align 4
  %13 = alloca i32, align 4
  %14 = alloca ptr, align 8
  store ptr %0, ptr %3, align 8, !tbaa !3
  store ptr %1, ptr %4, align 8, !tbaa !8
  call void @llvm.lifetime.start.p0(i64 4, ptr %5) #15
  store i32 24576, ptr %5, align 4, !tbaa !10
  call void @llvm.lifetime.start.p0(i64 4, ptr %6) #15
  %15 = load i32, ptr %5, align 4, !tbaa !10
  %16 = sdiv i32 %15, 64
  store i32 %16, ptr %6, align 4, !tbaa !10
  call void @llvm.lifetime.start.p0(i64 4, ptr %7) #15
  store i32 64, ptr %7, align 4, !tbaa !10
  call void @llvm.lifetime.start.p0(i64 4, ptr %8) #15
  call void @llvm.lifetime.start.p0(i64 4, ptr %9) #15
  call void @llvm.lifetime.start.p0(i64 40, ptr %10) #15
  call void @llvm.memset.p0.i64(ptr align 16 %10, i8 0, i64 40, i1 false)
  call void @llvm.lifetime.start.p0(i64 8, ptr %11) #15
  %17 = load i32, ptr %5, align 4, !tbaa !10
  %18 = load i32, ptr %7, align 4, !tbaa !10
  %19 = mul nsw i32 %17, %18
  %20 = add nsw i32 %19, 10000
  %21 = call ptr @Gia_ManStart(i32 noundef %20)
  store ptr %21, ptr %11, align 8, !tbaa !12
  store i32 0, ptr %8, align 4, !tbaa !10
  br label %22

22:                                               ; preds = %29, %2
  %23 = load i32, ptr %8, align 4, !tbaa !10
  %24 = load i32, ptr %5, align 4, !tbaa !10
  %25 = icmp slt i32 %23, %24
  br i1 %25, label %26, label %32

26:                                               ; preds = %22
  %27 = load ptr, ptr %11, align 8, !tbaa !12
  %28 = call i32 @Gia_ManAppendCi(ptr noundef %27)
  br label %29

29:                                               ; preds = %26
  %30 = load i32, ptr %8, align 4, !tbaa !10
  %31 = add nsw i32 %30, 1
  store i32 %31, ptr %8, align 4, !tbaa !10
  br label %22, !llvm.loop !14

32:                                               ; preds = %22
  %33 = load ptr, ptr %11, align 8, !tbaa !12
  call void @Gia_ManHashStart(ptr noundef %33)
  store i32 0, ptr %9, align 4, !tbaa !10
  br label %34

34:                                               ; preds = %79, %32
  %35 = load i32, ptr %9, align 4, !tbaa !10
  %36 = load i32, ptr %7, align 4, !tbaa !10
  %37 = icmp slt i32 %35, %36
  br i1 %37, label %38, label %82

38:                                               ; preds = %34
  call void @llvm.lifetime.start.p0(i64 4, ptr %12) #15
  %39 = load ptr, ptr %4, align 8, !tbaa !8
  %40 = load i32, ptr %9, align 4, !tbaa !10
  %41 = call signext i8 @Vec_StrEntry(ptr noundef %39, i32 noundef %40)
  %42 = sext i8 %41 to i32
  store i32 %42, ptr %12, align 4, !tbaa !10
  call void @llvm.lifetime.start.p0(i64 4, ptr %13) #15
  store i32 1, ptr %13, align 4, !tbaa !10
  call void @llvm.lifetime.start.p0(i64 8, ptr %14) #15
  %43 = load ptr, ptr %3, align 8, !tbaa !3
  %44 = load i32, ptr %9, align 4, !tbaa !10
  %45 = load i32, ptr %6, align 4, !tbaa !10
  %46 = mul nsw i32 %44, %45
  %47 = call ptr @Vec_WrdEntryP(ptr noundef %43, i32 noundef %46)
  store ptr %47, ptr %14, align 8, !tbaa !16
  store i32 0, ptr %8, align 4, !tbaa !10
  br label %48

48:                                               ; preds = %65, %38
  %49 = load i32, ptr %8, align 4, !tbaa !10
  %50 = load i32, ptr %5, align 4, !tbaa !10
  %51 = icmp slt i32 %49, %50
  br i1 %51, label %52, label %68

52:                                               ; preds = %48
  %53 = load ptr, ptr %11, align 8, !tbaa !12
  %54 = load i32, ptr %13, align 4, !tbaa !10
  %55 = load i32, ptr %8, align 4, !tbaa !10
  %56 = add nsw i32 %55, 1
  %57 = load ptr, ptr %14, align 8, !tbaa !16
  %58 = load i32, ptr %8, align 4, !tbaa !10
  %59 = call i32 @Abc_TtGetBit(ptr noundef %57, i32 noundef %58)
  %60 = icmp ne i32 %59, 0
  %61 = xor i1 %60, true
  %62 = zext i1 %61 to i32
  %63 = call i32 @Abc_Var2Lit(i32 noundef %56, i32 noundef %62)
  %64 = call i32 @Gia_ManHashAnd(ptr noundef %53, i32 noundef %54, i32 noundef %63)
  store i32 %64, ptr %13, align 4, !tbaa !10
  br label %65

65:                                               ; preds = %52
  %66 = load i32, ptr %8, align 4, !tbaa !10
  %67 = add nsw i32 %66, 1
  store i32 %67, ptr %8, align 4, !tbaa !10
  br label %48, !llvm.loop !18

68:                                               ; preds = %48
  %69 = load ptr, ptr %11, align 8, !tbaa !12
  %70 = load i32, ptr %12, align 4, !tbaa !10
  %71 = sext i32 %70 to i64
  %72 = getelementptr inbounds [10 x i32], ptr %10, i64 0, i64 %71
  %73 = load i32, ptr %72, align 4, !tbaa !10
  %74 = load i32, ptr %13, align 4, !tbaa !10
  %75 = call i32 @Gia_ManHashOr(ptr noundef %69, i32 noundef %73, i32 noundef %74)
  %76 = load i32, ptr %12, align 4, !tbaa !10
  %77 = sext i32 %76 to i64
  %78 = getelementptr inbounds [10 x i32], ptr %10, i64 0, i64 %77
  store i32 %75, ptr %78, align 4, !tbaa !10
  call void @llvm.lifetime.end.p0(i64 8, ptr %14) #15
  call void @llvm.lifetime.end.p0(i64 4, ptr %13) #15
  call void @llvm.lifetime.end.p0(i64 4, ptr %12) #15
  br label %79

79:                                               ; preds = %68
  %80 = load i32, ptr %9, align 4, !tbaa !10
  %81 = add nsw i32 %80, 1
  store i32 %81, ptr %9, align 4, !tbaa !10
  br label %34, !llvm.loop !19

82:                                               ; preds = %34
  store i32 0, ptr %8, align 4, !tbaa !10
  br label %83

83:                                               ; preds = %93, %82
  %84 = load i32, ptr %8, align 4, !tbaa !10
  %85 = icmp slt i32 %84, 10
  br i1 %85, label %86, label %96

86:                                               ; preds = %83
  %87 = load ptr, ptr %11, align 8, !tbaa !12
  %88 = load i32, ptr %8, align 4, !tbaa !10
  %89 = sext i32 %88 to i64
  %90 = getelementptr inbounds [10 x i32], ptr %10, i64 0, i64 %89
  %91 = load i32, ptr %90, align 4, !tbaa !10
  %92 = call i32 @Gia_ManAppendCo(ptr noundef %87, i32 noundef %91)
  br label %93

93:                                               ; preds = %86
  %94 = load i32, ptr %8, align 4, !tbaa !10
  %95 = add nsw i32 %94, 1
  store i32 %95, ptr %8, align 4, !tbaa !10
  br label %83, !llvm.loop !20

96:                                               ; preds = %83
  %97 = load ptr, ptr %11, align 8, !tbaa !12
  call void @llvm.lifetime.end.p0(i64 8, ptr %11) #15
  call void @llvm.lifetime.end.p0(i64 40, ptr %10) #15
  call void @llvm.lifetime.end.p0(i64 4, ptr %9) #15
  call void @llvm.lifetime.end.p0(i64 4, ptr %8) #15
  call void @llvm.lifetime.end.p0(i64 4, ptr %7) #15
  call void @llvm.lifetime.end.p0(i64 4, ptr %6) #15
  call void @llvm.lifetime.end.p0(i64 4, ptr %5) #15
  ret ptr %97
}