; Function Attrs: nounwind uwtable
define ptr @Gia_DeriveAig(ptr noundef readonly captures(none) %0, ptr noundef readonly captures(none) %1) local_unnamed_addr #0 {
  %3 = alloca [10 x i32], align 16
  call void @llvm.lifetime.start.p0(i64 40, ptr nonnull %3) #21
  call void @llvm.memset.p0.i64(ptr noundef nonnull align 16 dereferenceable(40) %3, i8 0, i64 40, i1 false)
  %4 = tail call ptr @Gia_ManStart(i32 noundef 1582864) #21
  br label %5

5:                                                ; preds = %2, %5
  %.035 = phi i32 [ 0, %2 ], [ %7, %5 ]
  %6 = tail call fastcc i32 @Gia_ManAppendCi(ptr noundef %4)
  %7 = add nuw nsw i32 %.035, 1
  %exitcond.not = icmp eq i32 %7, 24576
  br i1 %exitcond.not, label %8, label %5, !llvm.loop !3

8:                                                ; preds = %5
  tail call void @Gia_ManHashStart(ptr noundef %4) #21
  %9 = getelementptr i8, ptr %1, i64 8
  %10 = getelementptr i8, ptr %0, i64 8
  br label %11

11:                                               ; preds = %8, %30
  %indvars.iv = phi i64 [ 0, %8 ], [ %indvars.iv.next, %30 ]
  %.val = load ptr, ptr %9, align 8, !tbaa !5
  %12 = getelementptr inbounds nuw i8, ptr %.val, i64 %indvars.iv
  %13 = load i8, ptr %12, align 1, !tbaa !12
  %.val34 = load ptr, ptr %10, align 8, !tbaa !13
  %.idx = mul nuw nsw i64 %indvars.iv, 3072
  %14 = getelementptr inbounds nuw i8, ptr %.val34, i64 %.idx
  br label %15

15:                                               ; preds = %11, %15
  %.137 = phi i32 [ 0, %11 ], [ %16, %15 ]
  %.03236 = phi i32 [ 1, %11 ], [ %29, %15 ]
  %16 = add nuw nsw i32 %.137, 1
  %17 = lshr i32 %.137, 6
  %18 = zext nneg i32 %17 to i64
  %19 = getelementptr inbounds nuw i64, ptr %14, i64 %18
  %20 = load i64, ptr %19, align 8, !tbaa !16
  %21 = and i32 %.137, 63
  %22 = zext nneg i32 %21 to i64
  %23 = lshr i64 %20, %22
  %24 = trunc i64 %23 to i32
  %25 = and i32 %24, 1
  %26 = shl nuw nsw i32 %16, 1
  %27 = or disjoint i32 %25, %26
  %28 = xor i32 %27, 1
  %29 = tail call i32 @Gia_ManHashAnd(ptr noundef %4, i32 noundef %.03236, i32 noundef %28) #21
  %exitcond40.not = icmp eq i32 %16, 24576
  br i1 %exitcond40.not, label %30, label %15, !llvm.loop !18

30:                                               ; preds = %15
  %31 = sext i8 %13 to i64
  %32 = getelementptr inbounds [10 x i32], ptr %3, i64 0, i64 %31
  %33 = load i32, ptr %32, align 4, !tbaa !19
  %34 = tail call i32 @Gia_ManHashOr(ptr noundef %4, i32 noundef %33, i32 noundef %29) #21
  store i32 %34, ptr %32, align 4, !tbaa !19
  %indvars.iv.next = add nuw nsw i64 %indvars.iv, 1
  %exitcond42.not = icmp eq i64 %indvars.iv.next, 64
  br i1 %exitcond42.not, label %.preheader, label %11, !llvm.loop !20

.preheader:                                       ; preds = %30, %.preheader
  %indvars.iv43 = phi i64 [ %indvars.iv.next44, %.preheader ], [ 0, %30 ]
  %35 = getelementptr inbounds nuw [10 x i32], ptr %3, i64 0, i64 %indvars.iv43
  %36 = load i32, ptr %35, align 4, !tbaa !19
  tail call fastcc void @Gia_ManAppendCo(ptr noundef %4, i32 noundef %36)
  %indvars.iv.next44 = add nuw nsw i64 %indvars.iv43, 1
  %exitcond46.not = icmp eq i64 %indvars.iv.next44, 10
  br i1 %exitcond46.not, label %37, label %.preheader, !llvm.loop !21

37:                                               ; preds = %.preheader
  call void @llvm.lifetime.end.p0(i64 40, ptr nonnull %3) #21
  ret ptr %4
}